; Function Attrs: nounwind uwtable
define void @ff_riff_write_info_tag(ptr noundef %0, ptr noundef readonly captures(none) %1, ptr noundef %2) local_unnamed_addr #0 {
  %4 = tail call i64 @strlen(ptr noundef nonnull dereferenceable(1) %2) #11
  %5 = add i64 %4, -1
  %or.cond = icmp ult i64 %5, 4294967294
  br i1 %or.cond, label %6, label %13

6:                                                ; preds = %3
  %7 = load i32, ptr %1, align 1
  tail call void @avio_wl32(ptr noundef %0, i32 noundef %7) #8
  %8 = trunc nuw i64 %4 to i32
  %9 = add nuw i32 %8, 1
  tail call void @avio_wl32(ptr noundef %0, i32 noundef %9) #8
  %10 = tail call i32 @avio_put_str(ptr noundef %0, ptr noundef nonnull %2) #8
  %11 = and i64 %4, 1
  %.not.not = icmp eq i64 %11, 0
  br i1 %.not.not, label %12, label %13

12:                                               ; preds = %6
  tail call void @avio_w8(ptr noundef %0, i32 noundef 0) #8
  br label %13

13:                                               ; preds = %6, %12, %3
  ret void
}